; Function Attrs: mustprogress uwtable
define internal void @_ZN5arrow7compute8internal12_GLOBAL__N_117RegularHashKernelINS_10BinaryTypeENS2_12UniqueActionESt17basic_string_viewIcSt11char_traitsIcEELb0EE5ResetEv(ptr dead_on_unwind noalias writable writeonly sret(%"class.arrow::Status") align 8 captures(none) %0, ptr noundef nonnull align 8 captures(none) dereferenceable(112) %1) unnamed_addr #2 align 2 personality ptr @__gxx_personality_v0 {
  %3 = tail call noalias noundef nonnull dereferenceable(360) ptr @_Znwm(i64 noundef 360) #35
  %4 = getelementptr inbounds nuw i8, ptr %1, i64 56
  %5 = load ptr, ptr %4, align 8, !tbaa !656
  invoke void @_ZN5arrow8internal15BinaryMemoTableINS_13BinaryBuilderEEC2EPNS_10MemoryPoolEll(ptr noundef nonnull align 8 dereferenceable(356) %3, ptr noundef %5, i64 noundef 0, i64 noundef -1)
          to label %6 unwind label %12

6:                                                ; preds = %2
  %7 = getelementptr inbounds nuw i8, ptr %1, i64 104
  %8 = load ptr, ptr %7, align 8, !tbaa !1527
  store ptr %3, ptr %7, align 8, !tbaa !1527
  %.not.i.i = icmp eq ptr %8, null
  br i1 %.not.i.i, label %_ZNSt10unique_ptrIN5arrow8internal15BinaryMemoTableINS0_13BinaryBuilderEEESt14default_deleteIS4_EE5resetEPS4_.exit, label %_ZNKSt14default_deleteIN5arrow8internal15BinaryMemoTableINS0_13BinaryBuilderEEEEclEPS4_.exit.i.i

_ZNKSt14default_deleteIN5arrow8internal15BinaryMemoTableINS0_13BinaryBuilderEEEEclEPS4_.exit.i.i: ; preds = %6
  %9 = load ptr, ptr %8, align 8, !tbaa !79
  %10 = getelementptr inbounds nuw i8, ptr %9, i64 8
  %11 = load ptr, ptr %10, align 8
  tail call void %11(ptr noundef nonnull align 8 dereferenceable(356) %8) #33
  br label %_ZNSt10unique_ptrIN5arrow8internal15BinaryMemoTableINS0_13BinaryBuilderEEESt14default_deleteIS4_EE5resetEPS4_.exit

_ZNSt10unique_ptrIN5arrow8internal15BinaryMemoTableINS0_13BinaryBuilderEEESt14default_deleteIS4_EE5resetEPS4_.exit: ; preds = %6, %_ZNKSt14default_deleteIN5arrow8internal15BinaryMemoTableINS0_13BinaryBuilderEEEEclEPS4_.exit.i.i
  store ptr null, ptr %0, align 8, !tbaa !131, !alias.scope !1528
  ret void

12:                                               ; preds = %2
  %13 = landingpad { ptr, i32 }
          cleanup
  tail call void @_ZdlPvm(ptr noundef nonnull %3, i64 noundef 360) #34
  resume { ptr, i32 } %13
}